target datalayout = "e-m:e-p270:32:32-p271:32:32-p272:64:64-i64:64-i128:128-f80:128-n8:16:32:64-S128"
target triple = "x86_64-pc-linux-gnu"

%struct.Agobj_s = type { %struct.Agtag_s, ptr }
%struct.Agtag_s = type { i32, i64 }
%struct.Agrec_s = type { ptr, ptr }
%struct.boxf = type { %struct.pointf_s, %struct.pointf_s }
%struct.pointf_s = type { double, double }
%struct.Agnodeinfo_t = type { %struct.Agrec_s, ptr, ptr, %struct.pointf_s, double, double, %struct.boxf, double, double, double, double, double, ptr, ptr, ptr, i8, i8, i8, i8, i32, i32, i32, ptr, double, i8, i8, ptr, ptr, i8, i64, i8, i8, i8, ptr, ptr, %struct.elist, %struct.elist, %struct.elist, %struct.elist, %struct.elist, ptr, i32, ptr, i32, i32, double, %struct.elist, %struct.elist, %struct.elist, %struct.elist, ptr, i32, i32, i32, [1 x double] }
%struct.elist = type { ptr, i64 }
%struct.Agedgeinfo_t = type { %struct.Agrec_s, ptr, %struct.port, %struct.port, ptr, ptr, ptr, ptr, i8, i8, i8, i8, i8, ptr, ptr, double, double, %struct.Ppoly_t, i8, i8, i16, i32, i32, i32, i16, i32, ptr }
%struct.port = type { %struct.pointf_s, double, ptr, i8, i8, i8, i8, i8, i8, ptr }
%struct.Ppoly_t = type { ptr, i64 }
%struct.Agedge_s = type { %struct.Agobj_s, %struct.dtlink_s_, %struct.dtlink_s_, ptr }
%struct.dtlink_s_ = type { ptr, %union.anon }
%union.anon = type { ptr }

; Function Attrs: nounwind uwtable
define internal void @merge(ptr noundef %0, i32 noundef %1, i32 noundef %2) #0 {
  %4 = alloca ptr, align 8
  %5 = alloca i32, align 4
  %6 = alloca i32, align 4
  store ptr %0, ptr %4, align 8, !tbaa !60
  store i32 %1, ptr %5, align 4, !tbaa !45
  store i32 %2, ptr %6, align 4, !tbaa !45
  %7 = load ptr, ptr %4, align 8, !tbaa !60
  %8 = getelementptr inbounds nuw %struct.Agobj_s, ptr %7, i32 0, i32 1
  %9 = load ptr, ptr %8, align 8, !tbaa !10
  %10 = getelementptr inbounds nuw %struct.Agedgeinfo_t, ptr %9, i32 0, i32 25
  %11 = load i32, ptr %10, align 4, !tbaa !61
  %12 = load i32, ptr %5, align 4, !tbaa !45
  %13 = icmp sgt i32 %11, %12
  br i1 %13, label %14, label %20

14:                                               ; preds = %3
  %15 = load ptr, ptr %4, align 8, !tbaa !60
  %16 = getelementptr inbounds nuw %struct.Agobj_s, ptr %15, i32 0, i32 1
  %17 = load ptr, ptr %16, align 8, !tbaa !10
  %18 = getelementptr inbounds nuw %struct.Agedgeinfo_t, ptr %17, i32 0, i32 25
  %19 = load i32, ptr %18, align 4, !tbaa !61
  br label %22

20:                                               ; preds = %3
  %21 = load i32, ptr %5, align 4, !tbaa !45
  br label %22

22:                                               ; preds = %20, %14
  %23 = phi i32 [ %19, %14 ], [ %21, %20 ]
  %24 = load ptr, ptr %4, align 8, !tbaa !60
  %25 = getelementptr inbounds nuw %struct.Agobj_s, ptr %24, i32 0, i32 1
  %26 = load ptr, ptr %25, align 8, !tbaa !10
  %27 = getelementptr inbounds nuw %struct.Agedgeinfo_t, ptr %26, i32 0, i32 25
  store i32 %23, ptr %27, align 4, !tbaa !61
  %28 = load i32, ptr %6, align 4, !tbaa !45
  %29 = load ptr, ptr %4, align 8, !tbaa !60
  %30 = getelementptr inbounds nuw %struct.Agobj_s, ptr %29, i32 0, i32 1
  %31 = load ptr, ptr %30, align 8, !tbaa !10
  %32 = getelementptr inbounds nuw %struct.Agedgeinfo_t, ptr %31, i32 0, i32 21
  %33 = load i32, ptr %32, align 4, !tbaa !82
  %34 = add nsw i32 %33, %28
  store i32 %34, ptr %32, align 4, !tbaa !82
  ret void
}

; Function Attrs: nounwind uwtable
define internal void @reverse_edge2(ptr noundef %0, ptr noundef %1) #0 {
  %3 = alloca ptr, align 8
  %4 = alloca ptr, align 8
  %5 = alloca ptr, align 8
  store ptr %0, ptr %3, align 8, !tbaa !3
  store ptr %1, ptr %4, align 8, !tbaa !60
  call void @llvm.lifetime.start.p0(i64 8, ptr %5) #13
  %6 = load ptr, ptr %3, align 8, !tbaa !3
  %7 = load ptr, ptr %4, align 8, !tbaa !60
  %8 = getelementptr inbounds nuw %struct.Agobj_s, ptr %7, i32 0, i32 0
  %9 = load i32, ptr %8, align 8
  %10 = and i32 %9, 3
  %11 = icmp eq i32 %10, 2
  br i1 %11, label %12, label %14

12:                                               ; preds = %2
  %13 = load ptr, ptr %4, align 8, !tbaa !60
  br label %17

14:                                               ; preds = %2
  %15 = load ptr, ptr %4, align 8, !tbaa !60
  %16 = getelementptr inbounds %struct.Agedge_s, ptr %15, i64 -1
  br label %17

17:                                               ; preds = %14, %12
  %18 = phi ptr [ %13, %12 ], [ %16, %14 ]
  %19 = getelementptr inbounds nuw %struct.Agedge_s, ptr %18, i32 0, i32 3
  %20 = load ptr, ptr %19, align 8, !tbaa !108
  %21 = load ptr, ptr %4, align 8, !tbaa !60
  %22 = getelementptr inbounds nuw %struct.Agobj_s, ptr %21, i32 0, i32 0
  %23 = load i32, ptr %22, align 8
  %24 = and i32 %23, 3
  %25 = icmp eq i32 %24, 3
  br i1 %25, label %26, label %28

26:                                               ; preds = %17
  %27 = load ptr, ptr %4, align 8, !tbaa !60
  br label %31

28:                                               ; preds = %17
  %29 = load ptr, ptr %4, align 8, !tbaa !60
  %30 = getelementptr inbounds %struct.Agedge_s, ptr %29, i64 1
  br label %31

31:                                               ; preds = %28, %26
  %32 = phi ptr [ %27, %26 ], [ %30, %28 ]
  %33 = getelementptr inbounds nuw %struct.Agedge_s, ptr %32, i32 0, i32 3
  %34 = load ptr, ptr %33, align 8, !tbaa !108
  %35 = call ptr @agedge(ptr noundef %6, ptr noundef %20, ptr noundef %34, ptr noundef null, i32 noundef 0)
  store ptr %35, ptr %5, align 8, !tbaa !60
  %36 = load ptr, ptr %5, align 8, !tbaa !60
  %37 = icmp ne ptr %36, null
  br i1 %37, label %69, label %38

38:                                               ; preds = %31
  %39 = load ptr, ptr %3, align 8, !tbaa !3
  %40 = load ptr, ptr %4, align 8, !tbaa !60
  %41 = getelementptr inbounds nuw %struct.Agobj_s, ptr %40, i32 0, i32 0
  %42 = load i32, ptr %41, align 8
  %43 = and i32 %42, 3
  %44 = icmp eq i32 %43, 2
  br i1 %44, label %45, label %47

45:                                               ; preds = %38
  %46 = load ptr, ptr %4, align 8, !tbaa !60
  br label %50

47:                                               ; preds = %38
  %48 = load ptr, ptr %4, align 8, !tbaa !60
  %49 = getelementptr inbounds %struct.Agedge_s, ptr %48, i64 -1
  br label %50

50:                                               ; preds = %47, %45
  %51 = phi ptr [ %46, %45 ], [ %49, %47 ]
  %52 = getelementptr inbounds nuw %struct.Agedge_s, ptr %51, i32 0, i32 3
  %53 = load ptr, ptr %52, align 8, !tbaa !108
  %54 = load ptr, ptr %4, align 8, !tbaa !60
  %55 = getelementptr inbounds nuw %struct.Agobj_s, ptr %54, i32 0, i32 0
  %56 = load i32, ptr %55, align 8
  %57 = and i32 %56, 3
  %58 = icmp eq i32 %57, 3
  br i1 %58, label %59, label %61

59:                                               ; preds = %50
  %60 = load ptr, ptr %4, align 8, !tbaa !60
  br label %64

61:                                               ; preds = %50
  %62 = load ptr, ptr %4, align 8, !tbaa !60
  %63 = getelementptr inbounds %struct.Agedge_s, ptr %62, i64 1
  br label %64

64:                                               ; preds = %61, %59
  %65 = phi ptr [ %60, %59 ], [ %63, %61 ]
  %66 = getelementptr inbounds nuw %struct.Agedge_s, ptr %65, i32 0, i32 3
  %67 = load ptr, ptr %66, align 8, !tbaa !108
  %68 = call ptr @agedge(ptr noundef %39, ptr noundef %53, ptr noundef %67, ptr noundef null, i32 noundef 1)
  store ptr %68, ptr %5, align 8, !tbaa !60
  br label %69

69:                                               ; preds = %64, %31
  %70 = load ptr, ptr %5, align 8, !tbaa !60
  %71 = load ptr, ptr %4, align 8, !tbaa !60
  %72 = getelementptr inbounds nuw %struct.Agobj_s, ptr %71, i32 0, i32 1
  %73 = load ptr, ptr %72, align 8, !tbaa !10
  %74 = getelementptr inbounds nuw %struct.Agedgeinfo_t, ptr %73, i32 0, i32 25
  %75 = load i32, ptr %74, align 4, !tbaa !61
  %76 = load ptr, ptr %4, align 8, !tbaa !60
  %77 = getelementptr inbounds nuw %struct.Agobj_s, ptr %76, i32 0, i32 1
  %78 = load ptr, ptr %77, align 8, !tbaa !10
  %79 = getelementptr inbounds nuw %struct.Agedgeinfo_t, ptr %78, i32 0, i32 21
  %80 = load i32, ptr %79, align 4, !tbaa !82
  call void @merge(ptr noundef %70, i32 noundef %75, i32 noundef %80)
  %81 = load ptr, ptr %3, align 8, !tbaa !3
  %82 = load ptr, ptr %4, align 8, !tbaa !60
  %83 = call i32 @agdelete(ptr noundef %81, ptr noundef %82)
  call void @llvm.lifetime.end.p0(i64 8, ptr %5) #13
  ret void
}

; Function Attrs: nounwind uwtable
define internal void @dfs(ptr noundef %0, ptr noundef %1) #0 {
  %3 = alloca ptr, align 8
  %4 = alloca ptr, align 8
  %5 = alloca ptr, align 8
  %6 = alloca ptr, align 8
  %7 = alloca ptr, align 8
  %8 = alloca i32, align 4
  store ptr %0, ptr %3, align 8, !tbaa !3
  store ptr %1, ptr %4, align 8, !tbaa !8
  call void @llvm.lifetime.start.p0(i64 8, ptr %5) #13
  call void @llvm.lifetime.start.p0(i64 8, ptr %6) #13
  call void @llvm.lifetime.start.p0(i64 8, ptr %7) #13
  %9 = load ptr, ptr %4, align 8, !tbaa !8
  %10 = getelementptr inbounds nuw %struct.Agobj_s, ptr %9, i32 0, i32 1
  %11 = load ptr, ptr %10, align 8, !tbaa !10
  %12 = getelementptr inbounds nuw %struct.Agnodeinfo_t, ptr %11, i32 0, i32 29
  %13 = load i64, ptr %12, align 8, !tbaa !88
  %14 = icmp ne i64 %13, 0
  br i1 %14, label %15, label %16

15:                                               ; preds = %2
  store i32 1, ptr %8, align 4
  br label %77

16:                                               ; preds = %2
  %17 = load ptr, ptr %4, align 8, !tbaa !8
  %18 = getelementptr inbounds nuw %struct.Agobj_s, ptr %17, i32 0, i32 1
  %19 = load ptr, ptr %18, align 8, !tbaa !10
  %20 = getelementptr inbounds nuw %struct.Agnodeinfo_t, ptr %19, i32 0, i32 29
  store i64 1, ptr %20, align 8, !tbaa !88
  %21 = load ptr, ptr %4, align 8, !tbaa !8
  %22 = getelementptr inbounds nuw %struct.Agobj_s, ptr %21, i32 0, i32 1
  %23 = load ptr, ptr %22, align 8, !tbaa !10
  %24 = getelementptr inbounds nuw %struct.Agnodeinfo_t, ptr %23, i32 0, i32 30
  store i8 1, ptr %24, align 8, !tbaa !134
  %25 = load ptr, ptr %3, align 8, !tbaa !3
  %26 = load ptr, ptr %4, align 8, !tbaa !8
  %27 = call ptr @agfstout(ptr noundef %25, ptr noundef %26)
  store ptr %27, ptr %5, align 8, !tbaa !60
  br label %28

28:                                               ; preds = %70, %16
  %29 = load ptr, ptr %5, align 8, !tbaa !60
  %30 = icmp ne ptr %29, null
  br i1 %30, label %31, label %72

31:                                               ; preds = %28
  %32 = load ptr, ptr %3, align 8, !tbaa !3
  %33 = load ptr, ptr %5, align 8, !tbaa !60
  %34 = call ptr @agnxtout(ptr noundef %32, ptr noundef %33)
  store ptr %34, ptr %6, align 8, !tbaa !60
  %35 = load ptr, ptr %5, align 8, !tbaa !60
  %36 = getelementptr inbounds nuw %struct.Agobj_s, ptr %35, i32 0, i32 0
  %37 = load i32, ptr %36, align 8
  %38 = and i32 %37, 3
  %39 = icmp eq i32 %38, 2
  br i1 %39, label %40, label %42

40:                                               ; preds = %31
  %41 = load ptr, ptr %5, align 8, !tbaa !60
  br label %45

42:                                               ; preds = %31
  %43 = load ptr, ptr %5, align 8, !tbaa !60
  %44 = getelementptr inbounds %struct.Agedge_s, ptr %43, i64 -1
  br label %45

45:                                               ; preds = %42, %40
  %46 = phi ptr [ %41, %40 ], [ %44, %42 ]
  %47 = getelementptr inbounds nuw %struct.Agedge_s, ptr %46, i32 0, i32 3
  %48 = load ptr, ptr %47, align 8, !tbaa !108
  store ptr %48, ptr %7, align 8, !tbaa !8
  %49 = load ptr, ptr %7, align 8, !tbaa !8
  %50 = getelementptr inbounds nuw %struct.Agobj_s, ptr %49, i32 0, i32 1
  %51 = load ptr, ptr %50, align 8, !tbaa !10
  %52 = getelementptr inbounds nuw %struct.Agnodeinfo_t, ptr %51, i32 0, i32 30
  %53 = load i8, ptr %52, align 8, !tbaa !134
  %54 = icmp ne i8 %53, 0
  br i1 %54, label %55, label %58

55:                                               ; preds = %45
  %56 = load ptr, ptr %3, align 8, !tbaa !3
  %57 = load ptr, ptr %5, align 8, !tbaa !60
  call void @reverse_edge2(ptr noundef %56, ptr noundef %57)
  br label %69

58:                                               ; preds = %45
  %59 = load ptr, ptr %7, align 8, !tbaa !8
  %60 = getelementptr inbounds nuw %struct.Agobj_s, ptr %59, i32 0, i32 1
  %61 = load ptr, ptr %60, align 8, !tbaa !10
  %62 = getelementptr inbounds nuw %struct.Agnodeinfo_t, ptr %61, i32 0, i32 29
  %63 = load i64, ptr %62, align 8, !tbaa !88
  %64 = icmp ne i64 %63, 0
  br i1 %64, label %68, label %65

65:                                               ; preds = %58
  %66 = load ptr, ptr %3, align 8, !tbaa !3
  %67 = load ptr, ptr %7, align 8, !tbaa !8
  call void @dfs(ptr noundef %66, ptr noundef %67)
  br label %68

68:                                               ; preds = %65, %58
  br label %69

69:                                               ; preds = %68, %55
  br label %70

70:                                               ; preds = %69
  %71 = load ptr, ptr %6, align 8, !tbaa !60
  store ptr %71, ptr %5, align 8, !tbaa !60
  br label %28, !llvm.loop !161

72:                                               ; preds = %28
  %73 = load ptr, ptr %4, align 8, !tbaa !8
  %74 = getelementptr inbounds nuw %struct.Agobj_s, ptr %73, i32 0, i32 1
  %75 = load ptr, ptr %74, align 8, !tbaa !10
  %76 = getelementptr inbounds nuw %struct.Agnodeinfo_t, ptr %75, i32 0, i32 30
  store i8 0, ptr %76, align 8, !tbaa !134
  store i32 0, ptr %8, align 4
  br label %77

77:                                               ; preds = %72, %15
  call void @llvm.lifetime.end.p0(i64 8, ptr %7) #13
  call void @llvm.lifetime.end.p0(i64 8, ptr %6) #13
  call void @llvm.lifetime.end.p0(i64 8, ptr %5) #13
  %78 = load i32, ptr %8, align 4
  switch i32 %78, label %80 [
    i32 0, label %79
    i32 1, label %79
  ]

79:                                               ; preds = %77, %77
  ret void

80:                                               ; preds = %77
  unreachable
}