; Function Attrs: nounwind uwtable
define internal fastcc void @dfs(ptr noundef %0, ptr noundef %1) unnamed_addr #0 {
  %3 = getelementptr inbounds nuw i8, ptr %1, i64 16
  %4 = load ptr, ptr %3, align 8, !tbaa !3
  %5 = getelementptr inbounds nuw i8, ptr %4, i64 224
  %6 = load i64, ptr %5, align 8, !tbaa !89
  %.not = icmp eq i64 %6, 0
  br i1 %.not, label %7, label %64

7:                                                ; preds = %2
  store i64 1, ptr %5, align 8, !tbaa !89
  %8 = getelementptr inbounds nuw i8, ptr %4, i64 232
  store i8 1, ptr %8, align 8, !tbaa !90
  %9 = tail call ptr @agfstout(ptr noundef %0, ptr noundef nonnull %1) #15
  %.not1922 = icmp eq ptr %9, null
  br i1 %.not1922, label %._crit_edge, label %.lr.ph

.lr.ph:                                           ; preds = %7, %61
  %.023 = phi ptr [ %10, %61 ], [ %9, %7 ]
  %10 = tail call ptr @agnxtout(ptr noundef %0, ptr noundef nonnull %.023) #15
  %11 = load i32, ptr %.023, align 8
  %12 = and i32 %11, 3
  %13 = icmp eq i32 %12, 2
  %.idx = select i1 %13, i64 0, i64 -64
  %14 = getelementptr inbounds i8, ptr %.023, i64 %.idx
  %15 = getelementptr inbounds nuw i8, ptr %14, i64 56
  %16 = load ptr, ptr %15, align 8, !tbaa !66
  %17 = getelementptr inbounds nuw i8, ptr %16, i64 16
  %18 = load ptr, ptr %17, align 8, !tbaa !3
  %19 = getelementptr inbounds nuw i8, ptr %18, i64 232
  %20 = load i8, ptr %19, align 8, !tbaa !90
  %.not20 = icmp eq i8 %20, 0
  br i1 %.not20, label %57, label %21

21:                                               ; preds = %.lr.ph
  %22 = getelementptr inbounds i8, ptr %.023, i64 -64
  %23 = select i1 %13, ptr %.023, ptr %22
  %24 = getelementptr inbounds nuw i8, ptr %23, i64 56
  %25 = load ptr, ptr %24, align 8, !tbaa !66
  %26 = icmp eq i32 %12, 3
  %27 = getelementptr inbounds nuw i8, ptr %.023, i64 64
  %28 = select i1 %26, ptr %.023, ptr %27
  %29 = getelementptr inbounds nuw i8, ptr %28, i64 56
  %30 = load ptr, ptr %29, align 8, !tbaa !66
  %31 = tail call ptr @agedge(ptr noundef %0, ptr noundef %25, ptr noundef %30, ptr noundef null, i32 noundef 0) #15
  %.not.i = icmp eq ptr %31, null
  br i1 %.not.i, label %32, label %reverse_edge2.exit

32:                                               ; preds = %21
  %33 = load i32, ptr %.023, align 8
  %34 = and i32 %33, 3
  %35 = icmp eq i32 %34, 2
  %36 = select i1 %35, ptr %.023, ptr %22
  %37 = getelementptr inbounds nuw i8, ptr %36, i64 56
  %38 = load ptr, ptr %37, align 8, !tbaa !66
  %39 = icmp eq i32 %34, 3
  %40 = select i1 %39, ptr %.023, ptr %27
  %41 = getelementptr inbounds nuw i8, ptr %40, i64 56
  %42 = load ptr, ptr %41, align 8, !tbaa !66
  %43 = tail call ptr @agedge(ptr noundef %0, ptr noundef %38, ptr noundef %42, ptr noundef null, i32 noundef 1) #15
  br label %reverse_edge2.exit

reverse_edge2.exit:                               ; preds = %21, %32
  %.0.i = phi ptr [ %31, %21 ], [ %43, %32 ]
  %44 = getelementptr inbounds nuw i8, ptr %.023, i64 16
  %45 = load ptr, ptr %44, align 8, !tbaa !3
  %46 = getelementptr inbounds nuw i8, ptr %45, i64 228
  %47 = load i32, ptr %46, align 4, !tbaa !51
  %48 = getelementptr inbounds nuw i8, ptr %45, i64 212
  %49 = load i32, ptr %48, align 4, !tbaa !76
  %50 = getelementptr i8, ptr %.0.i, i64 16
  %.0.val.i = load ptr, ptr %50, align 8, !tbaa !3
  %51 = getelementptr inbounds nuw i8, ptr %.0.val.i, i64 228
  %52 = load i32, ptr %51, align 4, !tbaa !51
  %..i.i = tail call i32 @llvm.smax.i32(i32 %52, i32 %47)
  store i32 %..i.i, ptr %51, align 4, !tbaa !51
  %53 = getelementptr inbounds nuw i8, ptr %.0.val.i, i64 212
  %54 = load i32, ptr %53, align 4, !tbaa !76
  %55 = add nsw i32 %54, %49
  store i32 %55, ptr %53, align 4, !tbaa !76
  %56 = tail call i32 @agdelete(ptr noundef %0, ptr noundef nonnull %.023) #15
  br label %61

57:                                               ; preds = %.lr.ph
  %58 = getelementptr inbounds nuw i8, ptr %18, i64 224
  %59 = load i64, ptr %58, align 8, !tbaa !89
  %.not21 = icmp eq i64 %59, 0
  br i1 %.not21, label %60, label %61

60:                                               ; preds = %57
  tail call fastcc void @dfs(ptr noundef %0, ptr noundef nonnull %16)
  br label %61

61:                                               ; preds = %reverse_edge2.exit, %60, %57
  %.not19 = icmp eq ptr %10, null
  br i1 %.not19, label %._crit_edge, label %.lr.ph, !llvm.loop !145

._crit_edge:                                      ; preds = %61, %7
  %62 = load ptr, ptr %3, align 8, !tbaa !3
  %63 = getelementptr inbounds nuw i8, ptr %62, i64 232
  store i8 0, ptr %63, align 8, !tbaa !90
  br label %64

64:                                               ; preds = %2, %._crit_edge
  ret void
}